; Function Attrs: mustprogress uwtable
define void @_ZNK8LightGBM4GBDT19PredictContribByMapERKSt13unordered_mapIidSt4hashIiESt8equal_toIiESaISt4pairIKidEEEPSt6vectorISA_SaISA_EE(ptr noundef nonnull readonly align 8 captures(none) dereferenceable(648) %0, ptr noundef nonnull align 8 dereferenceable(56) %1, ptr noundef readonly captures(none) %2) unnamed_addr #1 align 2 {
  %4 = getelementptr inbounds nuw i8, ptr %0, i64 248
  %5 = load i32, ptr %4, align 8, !tbaa !154
  %6 = add nsw i32 %5, 1
  %7 = getelementptr inbounds nuw i8, ptr %0, i64 424
  %8 = load i32, ptr %7, align 8, !tbaa !382
  %9 = getelementptr inbounds nuw i8, ptr %0, i64 420
  %10 = load i32, ptr %9, align 4, !tbaa !153
  %11 = add nsw i32 %10, %8
  %12 = icmp sgt i32 %10, 0
  br i1 %12, label %.preheader.lr.ph, label %._crit_edge15

.preheader.lr.ph:                                 ; preds = %3
  %13 = getelementptr inbounds nuw i8, ptr %0, i64 408
  %14 = getelementptr inbounds nuw i8, ptr %0, i64 224
  %15 = load i32, ptr %13, align 8, !tbaa !199
  %16 = icmp sgt i32 %15, 0
  br i1 %16, label %.preheader, label %._crit_edge15

.preheader:                                       ; preds = %.preheader.lr.ph, %._crit_edge
  %17 = phi i32 [ %19, %._crit_edge ], [ %15, %.preheader.lr.ph ]
  %.01114 = phi i32 [ %20, %._crit_edge ], [ %8, %.preheader.lr.ph ]
  %18 = icmp sgt i32 %17, 0
  br i1 %18, label %.lr.ph, label %._crit_edge

._crit_edge15:                                    ; preds = %._crit_edge, %.preheader.lr.ph, %3
  ret void

._crit_edge:                                      ; preds = %.lr.ph, %.preheader
  %19 = phi i32 [ %17, %.preheader ], [ %32, %.lr.ph ]
  %20 = add nsw i32 %.01114, 1
  %21 = icmp slt i32 %20, %11
  br i1 %21, label %.preheader, label %._crit_edge15, !llvm.loop !386

.lr.ph:                                           ; preds = %.preheader, %.lr.ph
  %indvars.iv = phi i64 [ %indvars.iv.next, %.lr.ph ], [ 0, %.preheader ]
  %22 = phi i32 [ %32, %.lr.ph ], [ %17, %.preheader ]
  %23 = mul nsw i32 %22, %.01114
  %24 = trunc nuw nsw i64 %indvars.iv to i32
  %25 = add nsw i32 %23, %24
  %26 = sext i32 %25 to i64
  %27 = load ptr, ptr %14, align 8, !tbaa !229
  %28 = getelementptr inbounds nuw %"class.std::unique_ptr.118", ptr %27, i64 %26
  %29 = load ptr, ptr %28, align 8, !tbaa !234
  %30 = load ptr, ptr %2, align 8, !tbaa !387
  %31 = getelementptr inbounds nuw %"class.std::unordered_map.247", ptr %30, i64 %indvars.iv
  tail call void @_ZN8LightGBM4Tree19PredictContribByMapERKSt13unordered_mapIidSt4hashIiESt8equal_toIiESaISt4pairIKidEEEiPSA_(ptr noundef nonnull align 8 dereferenceable(648) %29, ptr noundef nonnull align 8 dereferenceable(56) %1, i32 noundef %6, ptr noundef nonnull %31)
  %indvars.iv.next = add nuw nsw i64 %indvars.iv, 1
  %32 = load i32, ptr %13, align 8, !tbaa !199
  %33 = sext i32 %32 to i64
  %34 = icmp slt i64 %indvars.iv.next, %33
  br i1 %34, label %.lr.ph, label %._crit_edge, !llvm.loop !390
}